Certificate:
    Data:
        Version: 3 (0x2)
        Serial Number: 1 (0x1)
        Signature Algorithm: sha256WithRSAEncryption
        Issuer: C=zh, ST=laokouyun, L=laokouyun, O=laokouyun, OU=laokouyun, CN=laokouyun/emailAddress=2413176044@qq.com
        Validity
            Not Before: Jul 26 02:00:43 2024 GMT
            Not After : Jul 24 02:00:43 2034 GMT
        Subject: C=zh, ST=laokouyun, O=laokouyun, OU=laokouyun, CN=laokouyun/emailAddress=2413176044@qq.com
        Subject Public Key Info:
            Public Key Algorithm: rsaEncryption
                Public-Key: (2048 bit)
                Modulus:
                    00:c3:a5:98:d3:27:03:3e:ea:1b:01:dd:97:97:18:
                    c0:50:64:36:70:4f:59:54:22:b0:3a:0a:5b:1a:c7:
                    d6:f7:86:a9:5f:d0:d9:99:9d:4a:12:ac:4e:26:f6:
                    af:a6:92:5e:a3:b8:0e:38:18:39:4d:af:7f:13:11:
                    87:c1:05:ba:0c:8e:79:11:92:0c:df:8d:82:d2:0f:
                    b9:25:95:d5:c0:ff:2f:79:1b:3c:14:f1:ed:99:77:
                    5b:66:f8:9b:c4:ff:e1:a8:61:d8:7b:47:b7:1f:d5:
                    7a:ad:cd:47:7f:8c:2c:96:04:33:7b:a5:e6:4c:5d:
                    25:3f:d1:90:96:53:aa:a1:23:90:7e:da:f9:86:92:
                    a7:fd:0c:4d:9b:f0:72:c2:e2:1c:03:42:2c:95:25:
                    7d:a6:ea:c4:5e:9d:94:c7:33:8c:e5:4e:d1:29:b6:
                    72:e9:ea:d2:95:7c:73:be:fd:8a:34:cd:dd:a8:3e:
                    77:31:44:0e:c9:97:a2:d6:a4:6b:21:97:b1:41:2e:
                    74:86:e9:16:c5:51:08:2c:19:c0:2f:9b:68:f6:46:
                    30:62:f1:97:22:b7:fc:02:24:64:33:83:fe:09:de:
                    55:60:17:00:95:8e:a2:84:a3:f3:5a:a0:01:36:42:
                    f3:da:2f:8d:d1:66:11:f1:00:6a:11:09:ed:b2:7d:
                    b9:53
                Exponent: 65537 (0x10001)
        X509v3 extensions:
            X509v3 Basic Constraints: 
                CA:FALSE
            X509v3 Subject Key Identifier: 
                70:05:C6:0C:E4:C7:7C:8A:99:26:16:AA:68:83:8A:35:24:C8:20:E0
            X509v3 Authority Key Identifier: 
                20:63:7B:AD:C8:54:32:7F:34:51:1C:3E:00:4D:C5:CB:7C:0C:C8:38
    Signature Algorithm: sha256WithRSAEncryption
    Signature Value:
        1a:62:91:86:8d:51:2f:be:46:7a:38:da:44:6b:28:0b:c5:de:
        a7:41:08:67:31:48:dd:e3:da:7c:0d:a4:04:80:9e:ea:4c:95:
        28:c5:62:b4:14:c2:92:e9:95:af:3b:8d:cb:b1:b5:13:73:d8:
        b6:31:1f:c4:4f:f0:18:bf:4e:03:2f:43:2b:7a:55:b9:c6:42:
        96:5d:79:2a:92:ce:6b:e8:35:09:ac:c5:4e:66:c6:73:a9:ab:
        c0:db:47:71:c7:dd:44:50:52:ab:ca:86:d3:2d:0c:26:ce:0b:
        47:57:e9:8b:a0:b5:0d:fa:a9:14:99:62:a8:8f:15:ab:6e:95:
        c9:95:1b:94:75:2e:10:2c:b4:ca:16:1f:be:45:ac:9f:38:be:
        b1:ab:d6:ab:fa:e7:8e:9c:25:11:ab:e4:f6:a2:13:58:ef:90:
        9e:40:b9:50:b0:7b:9e:12:d1:3f:ce:75:6f:bd:6f:c1:07:d0:
        86:2d:bf:34:bf:6b:1a:92:f8:f9:55:59:73:71:ce:21:9a:3d:
        67:97:8d:7f:e7:31:09:c8:96:0e:ec:6c:6e:3f:76:64:f9:29:
        4e:2a:9f:fc:80:ea:e0:ca:91:9a:c9:41:0d:ff:d3:f1:9c:11:
        d4:d4:6f:08:f9:36:04:59:81:be:8f:dd:2c:68:fe:f0:38:dc:
        df:70:d9:ce
-----BEGIN CERTIFICATE-----
MIID2zCCAsOgAwIBAgIBATANBgkqhkiG9w0BAQsFADCBkzELMAkGA1UEBhMCemgx
EjAQBgNVBAgMCWxhb2tvdXl1bjESMBAGA1UEBwwJbGFva291eXVuMRIwEAYDVQQK
DAlsYW9rb3V5dW4xEjAQBgNVBAsMCWxhb2tvdXl1bjESMBAGA1UEAwwJbGFva291
eXVuMSAwHgYJKoZIhvcNAQkBFhEyNDEzMTc2MDQ0QHFxLmNvbTAeFw0yNDA3MjYw
MjAwNDNaFw0zNDA3MjQwMjAwNDNaMH8xCzAJBgNVBAYTAnpoMRIwEAYDVQQIDAls
YW9rb3V5dW4xEjAQBgNVBAoMCWxhb2tvdXl1bjESMBAGA1UECwwJbGFva291eXVu
MRIwEAYDVQQDDAlsYW9rb3V5dW4xIDAeBgkqhkiG9w0BCQEWETI0MTMxNzYwNDRA
cXEuY29tMIIBIjANBgkqhkiG9w0BAQEFAAOCAQ8AMIIBCgKCAQEAw6WY0ycDPuob
Ad2XlxjAUGQ2cE9ZVCKwOgpbGsfW94apX9DZmZ1KEqxOJvavppJeo7gOOBg5Ta9/
ExGHwQW6DI55EZIM342C0g+5JZXVwP8veRs8FPHtmXdbZvibxP/hqGHYe0e3H9V6
rc1Hf4wslgQze6XmTF0lP9GQllOqoSOQftr5hpKn/QxNm/BywuIcA0IslSV9purE
Xp2UxzOM5U7RKbZy6erSlXxzvv2KNM3dqD53MUQOyZei1qRrIZexQS50hukWxVEI
LBnAL5to9kYwYvGXIrf8AiRkM4P+Cd5VYBcAlY6ihKPzWqABNkLz2i+N0WYR8QBq
EQntsn25UwIDAQABo00wSzAJBgNVHRMEAjAAMB0GA1UdDgQWBBRwBcYM5Md8ipkm
Fqpog4o1JMgg4DAfBgNVHSMEGDAWgBQgY3utyFQyfzRRHD4ATcXLfAzIODANBgkq
hkiG9w0BAQsFAAOCAQEAGmKRho1RL75GejjaRGsoC8Xep0EIZzFI3ePafA2kBICe
6kyVKMVitBTCkumVrzuNy7G1E3PYtjEfxE/wGL9OAy9DK3pVucZCll15KpLOa+g1
CazFTmbGc6mrwNtHccfdRFBSq8qG0y0MJs4LR1fpi6C1DfqpFJliqI8Vq26VyZUb
lHUuECy0yhYfvkWsnzi+savWq/rnjpwlEavk9qITWO+QnkC5ULB7nhLRP851b71v
wQfQhi2/NL9rGpL4+VVZc3HOIZo9Z5eNf+cxCciWDuxsbj92ZPkpTiqf/IDq4MqR
mslBDf/T8ZwR1NRvCPk2BFmBvo/dLGj+8Djc33DZzg==
-----END CERTIFICATE-----
