Certificate:
    Data:
        Version: 3 (0x2)
        Serial Number: 1 (0x1)
        Signature Algorithm: sha256WithRSAEncryption
        Issuer: C=zh, ST=laokouyun, L=laokouyun, O=laokouyun, OU=laokouyun, CN=laokouyun/emailAddress=2413176044@qq.com
        Validity
            Not Before: Jul 26 02:35:01 2024 GMT
            Not After : Jul 24 02:35:01 2034 GMT
        Subject: C=zh, ST=laokouyun, O=laokouyun, OU=laokouyun, CN=laokouyun/emailAddress=2413176044@qq.com
        Subject Public Key Info:
            Public Key Algorithm: rsaEncryption
                Public-Key: (2048 bit)
                Modulus:
                    00:85:a6:fa:b3:93:6f:fb:b1:c0:69:2a:c8:2e:8f:
                    93:b9:39:77:f9:ce:b2:ec:79:57:79:10:a8:2e:77:
                    90:21:47:ec:ac:1c:f4:3e:35:fa:e1:85:25:24:57:
                    fd:39:e5:68:4e:c9:20:4a:c9:ec:58:c0:a4:66:5a:
                    1a:6c:b4:70:3c:89:25:56:a2:f7:5b:13:57:45:7d:
                    8b:7d:a6:e1:e1:b5:0d:c4:a3:b4:c6:d9:11:43:c0:
                    9a:ea:55:35:92:05:e4:dd:7f:54:2c:18:f6:4a:1a:
                    b1:90:49:bf:5f:c4:e7:2b:a0:9c:5a:c1:98:74:f6:
                    21:c8:a4:bf:b9:c1:70:70:07:37:e8:5b:65:8e:bb:
                    ec:7a:ac:1e:a1:c1:ba:53:39:5f:e8:39:13:d0:b6:
                    cb:17:96:35:a5:6d:8a:a2:70:6b:ac:d8:5c:f4:3b:
                    1e:df:bd:11:95:f0:04:eb:f3:bc:08:29:32:19:eb:
                    6d:fb:0b:62:1d:8b:e2:c9:75:5f:63:4e:59:38:f0:
                    67:3e:45:07:e1:99:36:db:f5:e8:df:be:1d:d1:50:
                    71:e5:e9:84:c0:9c:72:68:a7:fc:bc:82:f5:53:e2:
                    3f:a9:0e:f7:83:07:48:bf:33:ce:7b:8e:34:2e:cd:
                    22:62:92:b8:96:3f:35:dc:1b:9a:2f:de:1c:5a:3c:
                    ad:d1
                Exponent: 65537 (0x10001)
        X509v3 extensions:
            X509v3 Basic Constraints:
                CA:FALSE
            X509v3 Subject Key Identifier:
                99:DD:FB:E5:27:24:BE:E1:10:A6:45:6B:97:76:E8:B9:AC:7F:EA:52
            X509v3 Authority Key Identifier:
                20:63:7B:AD:C8:54:32:7F:34:51:1C:3E:00:4D:C5:CB:7C:0C:C8:38
    Signature Algorithm: sha256WithRSAEncryption
    Signature Value:
        7e:bc:32:a1:79:60:bf:64:b4:e7:ed:a6:13:b5:df:ec:a7:8f:
        1d:92:44:85:07:85:38:d9:a4:05:5f:5e:04:4c:e4:d4:c0:b3:
        dc:99:ae:ed:f6:49:59:e1:13:92:15:9d:3a:6b:4a:1e:a6:2b:
        3d:18:f7:ae:a2:2a:1b:97:39:36:e4:fa:c3:1f:c1:f4:83:0a:
        72:80:52:04:09:3e:85:aa:28:f7:67:62:63:8e:20:8f:a1:b9:
        38:c1:8b:31:82:d2:36:09:c5:44:70:7f:47:17:c2:06:29:75:
        80:5c:76:26:5d:80:b9:ec:12:ae:df:63:27:17:69:fd:32:5e:
        b8:63:a7:13:d7:07:10:20:46:3f:40:11:ce:85:21:69:e7:d8:
        21:75:b4:92:3f:c7:86:43:41:dd:88:9a:40:7e:14:fb:21:24:
        40:ab:b2:2e:5b:1a:52:4f:33:3b:05:17:bd:a3:68:39:93:96:
        34:35:8e:0d:b3:47:71:bd:e5:6b:21:9f:a9:16:25:85:60:b2:
        e1:2e:3a:3e:f5:c9:6c:55:31:8b:d5:30:45:2c:79:5a:e8:c1:
        99:e4:df:a0:f7:f7:4a:b2:2c:6e:71:8e:55:20:19:ba:2e:f4:
        31:64:4a:4e:53:6f:12:13:87:59:3c:4a:21:8d:8c:e9:c3:17:
        b4:db:ea:d2
-----BEGIN CERTIFICATE-----
MIID2zCCAsOgAwIBAgIBATANBgkqhkiG9w0BAQsFADCBkzELMAkGA1UEBhMCemgx
EjAQBgNVBAgMCWxhb2tvdXl1bjESMBAGA1UEBwwJbGFva291eXVuMRIwEAYDVQQK
DAlsYW9rb3V5dW4xEjAQBgNVBAsMCWxhb2tvdXl1bjESMBAGA1UEAwwJbGFva291
eXVuMSAwHgYJKoZIhvcNAQkBFhEyNDEzMTc2MDQ0QHFxLmNvbTAeFw0yNDA3MjYw
MjM1MDFaFw0zNDA3MjQwMjM1MDFaMH8xCzAJBgNVBAYTAnpoMRIwEAYDVQQIDAls
YW9rb3V5dW4xEjAQBgNVBAoMCWxhb2tvdXl1bjESMBAGA1UECwwJbGFva291eXVu
MRIwEAYDVQQDDAlsYW9rb3V5dW4xIDAeBgkqhkiG9w0BCQEWETI0MTMxNzYwNDRA
cXEuY29tMIIBIjANBgkqhkiG9w0BAQEFAAOCAQ8AMIIBCgKCAQEAhab6s5Nv+7HA
aSrILo+TuTl3+c6y7HlXeRCoLneQIUfsrBz0PjX64YUlJFf9OeVoTskgSsnsWMCk
ZloabLRwPIklVqL3WxNXRX2Lfabh4bUNxKO0xtkRQ8Ca6lU1kgXk3X9ULBj2Shqx
kEm/X8TnK6CcWsGYdPYhyKS/ucFwcAc36FtljrvseqweocG6Uzlf6DkT0LbLF5Y1
pW2KonBrrNhc9Dse370RlfAE6/O8CCkyGett+wtiHYviyXVfY05ZOPBnPkUH4Zk2
2/Xo374d0VBx5emEwJxyaKf8vIL1U+I/qQ73gwdIvzPOe440Ls0iYpK4lj813Bua
L94cWjyt0QIDAQABo00wSzAJBgNVHRMEAjAAMB0GA1UdDgQWBBSZ3fvlJyS+4RCm
RWuXdui5rH/qUjAfBgNVHSMEGDAWgBQgY3utyFQyfzRRHD4ATcXLfAzIODANBgkq
hkiG9w0BAQsFAAOCAQEAfrwyoXlgv2S05+2mE7Xf7KePHZJEhQeFONmkBV9eBEzk
1MCz3Jmu7fZJWeETkhWdOmtKHqYrPRj3rqIqG5c5NuT6wx/B9IMKcoBSBAk+haoo
92diY44gj6G5OMGLMYLSNgnFRHB/RxfCBil1gFx2Jl2AuewSrt9jJxdp/TJeuGOn
E9cHECBGP0ARzoUhaefYIXW0kj/HhkNB3YiaQH4U+yEkQKuyLlsaUk8zOwUXvaNo
OZOWNDWODbNHcb3layGfqRYlhWCy4S46PvXJbFUxi9UwRSx5WujBmeTfoPf3SrIs
bnGOVSAZui70MWRKTlNvEhOHWTxKIY2M6cMXtNvq0g==
-----END CERTIFICATE-----
